target datalayout = "e-m:e-p270:32:32-p271:32:32-p272:64:64-i64:64-i128:128-f80:128-n8:16:32:64-S128"
target triple = "x86_64-pc-linux-gnu"

%struct.TT_GraphicsState_ = type { i16, i16, i16, %struct.FT_UnitVector_, %struct.FT_UnitVector_, %struct.FT_UnitVector_, i64, i64, i32, i8, i64, i64, i64, i16, i16, i8, i8, i32, i16, i16, i16 }
%struct.FT_UnitVector_ = type { i16, i16 }
%struct.TT_GlyphZoneRec_ = type { ptr, i16, i16, i16, i16, ptr, ptr, ptr, ptr, ptr, i16 }
%struct.FT_Vector_ = type { i64, i64 }
%struct.FT_Size_Metrics_ = type { i16, i16, i64, i64, i64, i64, i64, i64 }
%struct.TT_Size_Metrics_ = type { i64, i64, i16, i64, i64, [4 x i64], i8, i8, i8 }
%struct.TT_CodeRange_ = type { ptr, i64 }
%struct.TT_ExecContextRec_ = type { ptr, ptr, ptr, i32, i64, i64, ptr, i64, i64, %struct.TT_GlyphZoneRec_, %struct.TT_GlyphZoneRec_, %struct.TT_GlyphZoneRec_, %struct.TT_GlyphZoneRec_, %struct.TT_GlyphZoneRec_, i64, %struct.FT_Size_Metrics_, %struct.TT_Size_Metrics_, %struct.TT_GraphicsState_, i32, i32, ptr, i64, i64, i8, i32, i8, i64, ptr, i64, ptr, i32, ptr, i32, i32, ptr, i32, i32, ptr, i32, i32, i32, i32, ptr, i16, i16, [3 x %struct.TT_CodeRange_], i16, ptr, i16, ptr, i64, i64, i64, i8, %struct.TT_GraphicsState_, i8, i8, i64, ptr, ptr, ptr, ptr, ptr, ptr, ptr, ptr, ptr, ptr, i8, i8, i8, i8, i8, i8, i8, i64, i64, i64, i64 }

; Function Attrs: nounwind uwtable
define internal void @Compute_Funcs(ptr noundef %0) #0 {
  %2 = alloca ptr, align 8
  store ptr %0, ptr %2, align 8
  %3 = load ptr, ptr %2, align 8
  %4 = getelementptr inbounds %struct.TT_ExecContextRec_, ptr %3, i32 0, i32 17
  %5 = getelementptr inbounds %struct.TT_GraphicsState_, ptr %4, i32 0, i32 5
  %6 = getelementptr inbounds %struct.FT_UnitVector_, ptr %5, i32 0, i32 0
  %7 = load i16, ptr %6, align 2
  %8 = sext i16 %7 to i32
  %9 = icmp eq i32 %8, 16384
  br i1 %9, label %10, label %19

10:                                               ; preds = %1
  %11 = load ptr, ptr %2, align 8
  %12 = getelementptr inbounds %struct.TT_ExecContextRec_, ptr %11, i32 0, i32 17
  %13 = getelementptr inbounds %struct.TT_GraphicsState_, ptr %12, i32 0, i32 4
  %14 = getelementptr inbounds %struct.FT_UnitVector_, ptr %13, i32 0, i32 0
  %15 = load i16, ptr %14, align 2
  %16 = sext i16 %15 to i64
  %17 = load ptr, ptr %2, align 8
  %18 = getelementptr inbounds %struct.TT_ExecContextRec_, ptr %17, i32 0, i32 57
  store i64 %16, ptr %18, align 8
  br label %68

19:                                               ; preds = %1
  %20 = load ptr, ptr %2, align 8
  %21 = getelementptr inbounds %struct.TT_ExecContextRec_, ptr %20, i32 0, i32 17
  %22 = getelementptr inbounds %struct.TT_GraphicsState_, ptr %21, i32 0, i32 5
  %23 = getelementptr inbounds %struct.FT_UnitVector_, ptr %22, i32 0, i32 1
  %24 = load i16, ptr %23, align 2
  %25 = sext i16 %24 to i32
  %26 = icmp eq i32 %25, 16384
  br i1 %26, label %27, label %36

27:                                               ; preds = %19
  %28 = load ptr, ptr %2, align 8
  %29 = getelementptr inbounds %struct.TT_ExecContextRec_, ptr %28, i32 0, i32 17
  %30 = getelementptr inbounds %struct.TT_GraphicsState_, ptr %29, i32 0, i32 4
  %31 = getelementptr inbounds %struct.FT_UnitVector_, ptr %30, i32 0, i32 1
  %32 = load i16, ptr %31, align 2
  %33 = sext i16 %32 to i64
  %34 = load ptr, ptr %2, align 8
  %35 = getelementptr inbounds %struct.TT_ExecContextRec_, ptr %34, i32 0, i32 57
  store i64 %33, ptr %35, align 8
  br label %67

36:                                               ; preds = %19
  %37 = load ptr, ptr %2, align 8
  %38 = getelementptr inbounds %struct.TT_ExecContextRec_, ptr %37, i32 0, i32 17
  %39 = getelementptr inbounds %struct.TT_GraphicsState_, ptr %38, i32 0, i32 4
  %40 = getelementptr inbounds %struct.FT_UnitVector_, ptr %39, i32 0, i32 0
  %41 = load i16, ptr %40, align 2
  %42 = sext i16 %41 to i64
  %43 = load ptr, ptr %2, align 8
  %44 = getelementptr inbounds %struct.TT_ExecContextRec_, ptr %43, i32 0, i32 17
  %45 = getelementptr inbounds %struct.TT_GraphicsState_, ptr %44, i32 0, i32 5
  %46 = getelementptr inbounds %struct.FT_UnitVector_, ptr %45, i32 0, i32 0
  %47 = load i16, ptr %46, align 2
  %48 = sext i16 %47 to i64
  %49 = mul nsw i64 %42, %48
  %50 = load ptr, ptr %2, align 8
  %51 = getelementptr inbounds %struct.TT_ExecContextRec_, ptr %50, i32 0, i32 17
  %52 = getelementptr inbounds %struct.TT_GraphicsState_, ptr %51, i32 0, i32 4
  %53 = getelementptr inbounds %struct.FT_UnitVector_, ptr %52, i32 0, i32 1
  %54 = load i16, ptr %53, align 2
  %55 = sext i16 %54 to i64
  %56 = load ptr, ptr %2, align 8
  %57 = getelementptr inbounds %struct.TT_ExecContextRec_, ptr %56, i32 0, i32 17
  %58 = getelementptr inbounds %struct.TT_GraphicsState_, ptr %57, i32 0, i32 5
  %59 = getelementptr inbounds %struct.FT_UnitVector_, ptr %58, i32 0, i32 1
  %60 = load i16, ptr %59, align 2
  %61 = sext i16 %60 to i64
  %62 = mul nsw i64 %55, %61
  %63 = add nsw i64 %49, %62
  %64 = ashr i64 %63, 14
  %65 = load ptr, ptr %2, align 8
  %66 = getelementptr inbounds %struct.TT_ExecContextRec_, ptr %65, i32 0, i32 57
  store i64 %64, ptr %66, align 8
  br label %67

67:                                               ; preds = %36, %27
  br label %68

68:                                               ; preds = %67, %10
  %69 = load ptr, ptr %2, align 8
  %70 = getelementptr inbounds %struct.TT_ExecContextRec_, ptr %69, i32 0, i32 17
  %71 = getelementptr inbounds %struct.TT_GraphicsState_, ptr %70, i32 0, i32 4
  %72 = getelementptr inbounds %struct.FT_UnitVector_, ptr %71, i32 0, i32 0
  %73 = load i16, ptr %72, align 2
  %74 = sext i16 %73 to i32
  %75 = icmp eq i32 %74, 16384
  br i1 %75, label %76, label %79

76:                                               ; preds = %68
  %77 = load ptr, ptr %2, align 8
  %78 = getelementptr inbounds %struct.TT_ExecContextRec_, ptr %77, i32 0, i32 59
  store ptr @Project_x, ptr %78, align 8
  br label %94

79:                                               ; preds = %68
  %80 = load ptr, ptr %2, align 8
  %81 = getelementptr inbounds %struct.TT_ExecContextRec_, ptr %80, i32 0, i32 17
  %82 = getelementptr inbounds %struct.TT_GraphicsState_, ptr %81, i32 0, i32 4
  %83 = getelementptr inbounds %struct.FT_UnitVector_, ptr %82, i32 0, i32 1
  %84 = load i16, ptr %83, align 2
  %85 = sext i16 %84 to i32
  %86 = icmp eq i32 %85, 16384
  br i1 %86, label %87, label %90

87:                                               ; preds = %79
  %88 = load ptr, ptr %2, align 8
  %89 = getelementptr inbounds %struct.TT_ExecContextRec_, ptr %88, i32 0, i32 59
  store ptr @Project_y, ptr %89, align 8
  br label %93

90:                                               ; preds = %79
  %91 = load ptr, ptr %2, align 8
  %92 = getelementptr inbounds %struct.TT_ExecContextRec_, ptr %91, i32 0, i32 59
  store ptr @Project, ptr %92, align 8
  br label %93

93:                                               ; preds = %90, %87
  br label %94

94:                                               ; preds = %93, %76
  %95 = load ptr, ptr %2, align 8
  %96 = getelementptr inbounds %struct.TT_ExecContextRec_, ptr %95, i32 0, i32 17
  %97 = getelementptr inbounds %struct.TT_GraphicsState_, ptr %96, i32 0, i32 3
  %98 = getelementptr inbounds %struct.FT_UnitVector_, ptr %97, i32 0, i32 0
  %99 = load i16, ptr %98, align 2
  %100 = sext i16 %99 to i32
  %101 = icmp eq i32 %100, 16384
  br i1 %101, label %102, label %105

102:                                              ; preds = %94
  %103 = load ptr, ptr %2, align 8
  %104 = getelementptr inbounds %struct.TT_ExecContextRec_, ptr %103, i32 0, i32 60
  store ptr @Project_x, ptr %104, align 8
  br label %120

105:                                              ; preds = %94
  %106 = load ptr, ptr %2, align 8
  %107 = getelementptr inbounds %struct.TT_ExecContextRec_, ptr %106, i32 0, i32 17
  %108 = getelementptr inbounds %struct.TT_GraphicsState_, ptr %107, i32 0, i32 3
  %109 = getelementptr inbounds %struct.FT_UnitVector_, ptr %108, i32 0, i32 1
  %110 = load i16, ptr %109, align 2
  %111 = sext i16 %110 to i32
  %112 = icmp eq i32 %111, 16384
  br i1 %112, label %113, label %116

113:                                              ; preds = %105
  %114 = load ptr, ptr %2, align 8
  %115 = getelementptr inbounds %struct.TT_ExecContextRec_, ptr %114, i32 0, i32 60
  store ptr @Project_y, ptr %115, align 8
  br label %119

116:                                              ; preds = %105
  %117 = load ptr, ptr %2, align 8
  %118 = getelementptr inbounds %struct.TT_ExecContextRec_, ptr %117, i32 0, i32 60
  store ptr @Dual_Project, ptr %118, align 8
  br label %119

119:                                              ; preds = %116, %113
  br label %120

120:                                              ; preds = %119, %102
  %121 = load ptr, ptr %2, align 8
  %122 = getelementptr inbounds %struct.TT_ExecContextRec_, ptr %121, i32 0, i32 62
  store ptr @Direct_Move, ptr %122, align 8
  %123 = load ptr, ptr %2, align 8
  %124 = getelementptr inbounds %struct.TT_ExecContextRec_, ptr %123, i32 0, i32 63
  store ptr @Direct_Move_Orig, ptr %124, align 8
  %125 = load ptr, ptr %2, align 8
  %126 = getelementptr inbounds %struct.TT_ExecContextRec_, ptr %125, i32 0, i32 57
  %127 = load i64, ptr %126, align 8
  %128 = icmp eq i64 %127, 16384
  br i1 %128, label %129, label %157

129:                                              ; preds = %120
  %130 = load ptr, ptr %2, align 8
  %131 = getelementptr inbounds %struct.TT_ExecContextRec_, ptr %130, i32 0, i32 17
  %132 = getelementptr inbounds %struct.TT_GraphicsState_, ptr %131, i32 0, i32 5
  %133 = getelementptr inbounds %struct.FT_UnitVector_, ptr %132, i32 0, i32 0
  %134 = load i16, ptr %133, align 2
  %135 = sext i16 %134 to i32
  %136 = icmp eq i32 %135, 16384
  br i1 %136, label %137, label %142

137:                                              ; preds = %129
  %138 = load ptr, ptr %2, align 8
  %139 = getelementptr inbounds %struct.TT_ExecContextRec_, ptr %138, i32 0, i32 62
  store ptr @Direct_Move_X, ptr %139, align 8
  %140 = load ptr, ptr %2, align 8
  %141 = getelementptr inbounds %struct.TT_ExecContextRec_, ptr %140, i32 0, i32 63
  store ptr @Direct_Move_Orig_X, ptr %141, align 8
  br label %156

142:                                              ; preds = %129
  %143 = load ptr, ptr %2, align 8
  %144 = getelementptr inbounds %struct.TT_ExecContextRec_, ptr %143, i32 0, i32 17
  %145 = getelementptr inbounds %struct.TT_GraphicsState_, ptr %144, i32 0, i32 5
  %146 = getelementptr inbounds %struct.FT_UnitVector_, ptr %145, i32 0, i32 1
  %147 = load i16, ptr %146, align 2
  %148 = sext i16 %147 to i32
  %149 = icmp eq i32 %148, 16384
  br i1 %149, label %150, label %155

150:                                              ; preds = %142
  %151 = load ptr, ptr %2, align 8
  %152 = getelementptr inbounds %struct.TT_ExecContextRec_, ptr %151, i32 0, i32 62
  store ptr @Direct_Move_Y, ptr %152, align 8
  %153 = load ptr, ptr %2, align 8
  %154 = getelementptr inbounds %struct.TT_ExecContextRec_, ptr %153, i32 0, i32 63
  store ptr @Direct_Move_Orig_Y, ptr %154, align 8
  br label %155

155:                                              ; preds = %150, %142
  br label %156

156:                                              ; preds = %155, %137
  br label %157

157:                                              ; preds = %156, %120
  %158 = load ptr, ptr %2, align 8
  %159 = getelementptr inbounds %struct.TT_ExecContextRec_, ptr %158, i32 0, i32 57
  %160 = load i64, ptr %159, align 8
  %161 = icmp slt i64 %160, 0
  br i1 %161, label %162, label %167

162:                                              ; preds = %157
  %163 = load ptr, ptr %2, align 8
  %164 = getelementptr inbounds %struct.TT_ExecContextRec_, ptr %163, i32 0, i32 57
  %165 = load i64, ptr %164, align 8
  %166 = sub nsw i64 0, %165
  br label %171

167:                                              ; preds = %157
  %168 = load ptr, ptr %2, align 8
  %169 = getelementptr inbounds %struct.TT_ExecContextRec_, ptr %168, i32 0, i32 57
  %170 = load i64, ptr %169, align 8
  br label %171

171:                                              ; preds = %167, %162
  %172 = phi i64 [ %166, %162 ], [ %170, %167 ]
  %173 = icmp slt i64 %172, 1024
  br i1 %173, label %174, label %177

174:                                              ; preds = %171
  %175 = load ptr, ptr %2, align 8
  %176 = getelementptr inbounds %struct.TT_ExecContextRec_, ptr %175, i32 0, i32 57
  store i64 16384, ptr %176, align 8
  br label %177

177:                                              ; preds = %174, %171
  %178 = load ptr, ptr %2, align 8
  %179 = getelementptr inbounds %struct.TT_ExecContextRec_, ptr %178, i32 0, i32 16
  %180 = getelementptr inbounds %struct.TT_Size_Metrics_, ptr %179, i32 0, i32 3
  store i64 0, ptr %180, align 8
  ret void
}

; Function Attrs: nounwind uwtable
define internal zeroext i8 @Normalize(i64 noundef %0, i64 noundef %1, ptr noundef %2) #0 {
  %4 = alloca i8, align 1
  %5 = alloca i64, align 8
  %6 = alloca i64, align 8
  %7 = alloca ptr, align 8
  %8 = alloca %struct.FT_Vector_, align 8
  store i64 %0, ptr %5, align 8
  store i64 %1, ptr %6, align 8
  store ptr %2, ptr %7, align 8
  %9 = load i64, ptr %5, align 8
  %10 = icmp eq i64 %9, 0
  br i1 %10, label %11, label %15

11:                                               ; preds = %3
  %12 = load i64, ptr %6, align 8
  %13 = icmp eq i64 %12, 0
  br i1 %13, label %14, label %15

14:                                               ; preds = %11
  store i8 0, ptr %4, align 1
  br label %33

15:                                               ; preds = %11, %3
  %16 = load i64, ptr %5, align 8
  %17 = getelementptr inbounds %struct.FT_Vector_, ptr %8, i32 0, i32 0
  store i64 %16, ptr %17, align 8
  %18 = load i64, ptr %6, align 8
  %19 = getelementptr inbounds %struct.FT_Vector_, ptr %8, i32 0, i32 1
  store i64 %18, ptr %19, align 8
  %20 = call i32 @FT_Vector_NormLen(ptr noundef %8)
  %21 = getelementptr inbounds %struct.FT_Vector_, ptr %8, i32 0, i32 0
  %22 = load i64, ptr %21, align 8
  %23 = sdiv i64 %22, 4
  %24 = trunc i64 %23 to i16
  %25 = load ptr, ptr %7, align 8
  %26 = getelementptr inbounds %struct.FT_UnitVector_, ptr %25, i32 0, i32 0
  store i16 %24, ptr %26, align 2
  %27 = getelementptr inbounds %struct.FT_Vector_, ptr %8, i32 0, i32 1
  %28 = load i64, ptr %27, align 8
  %29 = sdiv i64 %28, 4
  %30 = trunc i64 %29 to i16
  %31 = load ptr, ptr %7, align 8
  %32 = getelementptr inbounds %struct.FT_UnitVector_, ptr %31, i32 0, i32 1
  store i16 %30, ptr %32, align 2
  store i8 0, ptr %4, align 1
  br label %33

33:                                               ; preds = %15, %14
  %34 = load i8, ptr %4, align 1
  ret i8 %34
}

; Function Attrs: nounwind uwtable
define internal void @Ins_SPVFS(ptr noundef %0, ptr noundef %1) #0 {
  %3 = alloca ptr, align 8
  %4 = alloca ptr, align 8
  %5 = alloca i16, align 2
  %6 = alloca i64, align 8
  %7 = alloca i64, align 8
  store ptr %0, ptr %3, align 8
  store ptr %1, ptr %4, align 8
  %8 = load ptr, ptr %4, align 8
  %9 = getelementptr inbounds i64, ptr %8, i64 1
  %10 = load i64, ptr %9, align 8
  %11 = trunc i64 %10 to i16
  store i16 %11, ptr %5, align 2
  %12 = load i16, ptr %5, align 2
  %13 = sext i16 %12 to i64
  store i64 %13, ptr %7, align 8
  %14 = load ptr, ptr %4, align 8
  %15 = getelementptr inbounds i64, ptr %14, i64 0
  %16 = load i64, ptr %15, align 8
  %17 = trunc i64 %16 to i16
  store i16 %17, ptr %5, align 2
  %18 = load i16, ptr %5, align 2
  %19 = sext i16 %18 to i64
  store i64 %19, ptr %6, align 8
  %20 = load i64, ptr %6, align 8
  %21 = load i64, ptr %7, align 8
  %22 = load ptr, ptr %3, align 8
  %23 = getelementptr inbounds %struct.TT_ExecContextRec_, ptr %22, i32 0, i32 17
  %24 = getelementptr inbounds %struct.TT_GraphicsState_, ptr %23, i32 0, i32 4
  %25 = call zeroext i8 @Normalize(i64 noundef %20, i64 noundef %21, ptr noundef %24)
  %26 = load ptr, ptr %3, align 8
  %27 = getelementptr inbounds %struct.TT_ExecContextRec_, ptr %26, i32 0, i32 17
  %28 = getelementptr inbounds %struct.TT_GraphicsState_, ptr %27, i32 0, i32 3
  %29 = load ptr, ptr %3, align 8
  %30 = getelementptr inbounds %struct.TT_ExecContextRec_, ptr %29, i32 0, i32 17
  %31 = getelementptr inbounds %struct.TT_GraphicsState_, ptr %30, i32 0, i32 4
  call void @llvm.memcpy.p0.p0.i64(ptr align 2 %28, ptr align 2 %31, i64 4, i1 false)
  %32 = load ptr, ptr %3, align 8
  call void @Compute_Funcs(ptr noundef %32)
  ret void
}