; Function Attrs: nounwind uwtable
define internal fastcc void @Ins_SPVFS(ptr nocapture noundef %0, i64 %.0.val, i64 %.8.val) unnamed_addr #2 {
  %2 = alloca %struct.FT_Vector_, align 8
  %sext = shl i64 %.8.val, 48
  %3 = ashr exact i64 %sext, 48
  %sext9 = shl i64 %.0.val, 48
  %4 = ashr exact i64 %sext9, 48
  %5 = getelementptr inbounds i8, ptr %0, i64 546
  call void @llvm.lifetime.start.p0(i64 16, ptr nonnull %2)
  %6 = or i64 %3, %4
  %or.cond.i = icmp eq i64 %6, 0
  br i1 %or.cond.i, label %Normalize.exit, label %7

7:                                                ; preds = %1
  store i64 %4, ptr %2, align 8
  %8 = getelementptr inbounds i8, ptr %2, i64 8
  store i64 %3, ptr %8, align 8
  %9 = call i32 @FT_Vector_NormLen(ptr noundef nonnull %2) #22
  %10 = load i64, ptr %2, align 8
  %11 = sdiv i64 %10, 4
  %12 = trunc i64 %11 to i16
  store i16 %12, ptr %5, align 2
  %13 = load i64, ptr %8, align 8
  %14 = sdiv i64 %13, 4
  %15 = trunc i64 %14 to i16
  %16 = getelementptr inbounds i8, ptr %0, i64 548
  store i16 %15, ptr %16, align 2
  br label %Normalize.exit

Normalize.exit:                                   ; preds = %1, %7
  call void @llvm.lifetime.end.p0(i64 16, ptr nonnull %2)
  %17 = getelementptr inbounds i8, ptr %0, i64 542
  %18 = load i32, ptr %5, align 2
  store i32 %18, ptr %17, align 2
  %19 = getelementptr inbounds i8, ptr %0, i64 550
  %20 = load i16, ptr %19, align 2
  %21 = icmp eq i16 %20, 16384
  %22 = trunc i32 %18 to i16
  %23 = lshr i32 %18, 16
  %24 = trunc nuw i32 %23 to i16
  br i1 %21, label %25, label %27

25:                                               ; preds = %Normalize.exit
  %26 = sext i16 %22 to i64
  br label %42

27:                                               ; preds = %Normalize.exit
  %28 = getelementptr inbounds i8, ptr %0, i64 552
  %29 = load i16, ptr %28, align 2
  %30 = icmp eq i16 %29, 16384
  br i1 %30, label %31, label %33

31:                                               ; preds = %27
  %32 = sext i16 %24 to i64
  br label %42

33:                                               ; preds = %27
  %34 = sext i16 %22 to i64
  %35 = sext i16 %20 to i64
  %36 = mul nsw i64 %34, %35
  %37 = sext i16 %24 to i64
  %38 = sext i16 %29 to i64
  %39 = mul nsw i64 %37, %38
  %40 = add nsw i64 %39, %36
  %41 = ashr i64 %40, 14
  br label %42

42:                                               ; preds = %33, %31, %25
  %.sink = phi i64 [ %41, %33 ], [ %32, %31 ], [ %26, %25 ]
  %43 = getelementptr inbounds i8, ptr %0, i64 1008
  store i64 %.sink, ptr %43, align 8
  %44 = icmp eq i16 %22, 16384
  %45 = getelementptr inbounds i8, ptr %0, i64 1032
  br i1 %44, label %49, label %46

46:                                               ; preds = %42
  %47 = icmp eq i32 %23, 16384
  %48 = getelementptr inbounds i8, ptr %0, i64 1024
  br i1 %47, label %51, label %52

49:                                               ; preds = %42
  %50 = getelementptr inbounds i8, ptr %0, i64 1024
  store ptr @Project_x, ptr %50, align 8
  br label %53

51:                                               ; preds = %46
  store ptr @Project_y, ptr %48, align 8
  br label %53

52:                                               ; preds = %46
  store ptr @Project, ptr %48, align 8
  br label %53

53:                                               ; preds = %52, %51, %49
  %Dual_Project.sink = phi ptr [ @Dual_Project, %52 ], [ @Project_y, %51 ], [ @Project_x, %49 ]
  store ptr %Dual_Project.sink, ptr %45, align 8
  %54 = getelementptr inbounds i8, ptr %0, i64 1048
  store ptr @Direct_Move, ptr %54, align 8
  %55 = getelementptr inbounds i8, ptr %0, i64 1056
  store ptr @Direct_Move_Orig, ptr %55, align 8
  %56 = getelementptr inbounds i8, ptr %0, i64 1008
  %57 = icmp eq i64 %.sink, 16384
  br i1 %57, label %58, label %63

58:                                               ; preds = %53
  br i1 %21, label %.sink.split.i, label %59

59:                                               ; preds = %58
  %60 = getelementptr inbounds i8, ptr %0, i64 552
  %61 = load i16, ptr %60, align 2
  %62 = icmp eq i16 %61, 16384
  br i1 %62, label %.sink.split.i, label %63

.sink.split.i:                                    ; preds = %59, %58
  %Direct_Move_X.sink.i = phi ptr [ @Direct_Move_X, %58 ], [ @Direct_Move_Y, %59 ]
  %Direct_Move_Orig_X.sink.i = phi ptr [ @Direct_Move_Orig_X, %58 ], [ @Direct_Move_Orig_Y, %59 ]
  store ptr %Direct_Move_X.sink.i, ptr %54, align 8
  store ptr %Direct_Move_Orig_X.sink.i, ptr %55, align 8
  br label %63

63:                                               ; preds = %.sink.split.i, %59, %53
  %64 = call i64 @llvm.abs.i64(i64 %.sink, i1 true)
  %65 = icmp ult i64 %64, 1024
  br i1 %65, label %66, label %Compute_Funcs.exit

66:                                               ; preds = %63
  store i64 16384, ptr %56, align 8
  br label %Compute_Funcs.exit

Compute_Funcs.exit:                               ; preds = %63, %66
  %67 = getelementptr inbounds i8, ptr %0, i64 480
  store i64 0, ptr %67, align 8
  ret void
}